; Function Attrs: mustprogress nofree nounwind willreturn memory(readwrite, argmem: write, inaccessiblemem: write) uwtable
define internal fastcc { double, double } @cmath_cosh_impl(double %0, double %1) unnamed_addr #8 {
  %3 = tail call double @llvm.fabs.f64(double %0)
  %4 = fcmp ueq double %3, 0x7FF0000000000000
  %5 = tail call double @llvm.fabs.f64(double %1)
  %6 = fcmp ueq double %5, 0x7FF0000000000000
  %or.cond27 = select i1 %4, i1 true, i1 %6
  br i1 %or.cond27, label %7, label %50

7:                                                ; preds = %2
  %8 = fcmp oeq double %3, 0x7FF0000000000000
  br i1 %8, label %9, label %20

9:                                                ; preds = %7
  %or.cond = tail call i1 @llvm.is.fpclass.f64(double %1, i32 408)
  br i1 %or.cond, label %10, label %20

10:                                               ; preds = %9
  %11 = fcmp ogt double %0, 0.000000e+00
  %12 = tail call double @cos(double noundef %1) #11, !tbaa !3
  %13 = tail call double @llvm.copysign.f64(double 0x7FF0000000000000, double %12)
  %14 = tail call double @sin(double noundef %1) #11, !tbaa !3
  br i1 %11, label %15, label %17

15:                                               ; preds = %10
  %16 = tail call double @llvm.copysign.f64(double 0x7FF0000000000000, double %14)
  br label %44

17:                                               ; preds = %10
  %18 = fneg double %14
  %19 = tail call double @llvm.copysign.f64(double 0x7FF0000000000000, double %18)
  br label %44

20:                                               ; preds = %9, %7
  br i1 %4, label %27, label %21

21:                                               ; preds = %20
  %22 = fcmp une double %0, 0.000000e+00
  %23 = tail call double @llvm.copysign.f64(double 1.000000e+00, double %0)
  %24 = fcmp oeq double %23, 1.000000e+00
  br i1 %22, label %25, label %26

25:                                               ; preds = %21
  %..i = select i1 %24, i64 4, i64 1
  br label %special_type.exit

26:                                               ; preds = %21
  %.7.i = select i1 %24, i64 3, i64 2
  br label %special_type.exit

27:                                               ; preds = %20
  %28 = fcmp uno double %0, 0.000000e+00
  br i1 %28, label %special_type.exit, label %29

29:                                               ; preds = %27
  %30 = tail call double @llvm.copysign.f64(double 1.000000e+00, double %0)
  %31 = fcmp oeq double %30, 1.000000e+00
  %.8.i = select i1 %31, i64 5, i64 0
  br label %special_type.exit

special_type.exit:                                ; preds = %25, %26, %27, %29
  %.0.i = phi i64 [ %..i, %25 ], [ %.7.i, %26 ], [ 6, %27 ], [ %.8.i, %29 ]
  br i1 %6, label %38, label %32

32:                                               ; preds = %special_type.exit
  %33 = fcmp une double %1, 0.000000e+00
  %34 = tail call double @llvm.copysign.f64(double 1.000000e+00, double %1)
  %35 = fcmp oeq double %34, 1.000000e+00
  br i1 %33, label %36, label %37

36:                                               ; preds = %32
  %..i33 = select i1 %35, i64 4, i64 1
  br label %special_type.exit35

37:                                               ; preds = %32
  %.7.i31 = select i1 %35, i64 3, i64 2
  br label %special_type.exit35

38:                                               ; preds = %special_type.exit
  %39 = fcmp uno double %1, 0.000000e+00
  br i1 %39, label %special_type.exit35, label %40

40:                                               ; preds = %38
  %41 = tail call double @llvm.copysign.f64(double 1.000000e+00, double %1)
  %42 = fcmp oeq double %41, 1.000000e+00
  %.8.i34 = select i1 %42, i64 5, i64 0
  br label %special_type.exit35

special_type.exit35:                              ; preds = %36, %37, %38, %40
  %.0.i32 = phi i64 [ %..i33, %36 ], [ %.7.i31, %37 ], [ 6, %38 ], [ %.8.i34, %40 ]
  %43 = getelementptr [7 x [7 x %struct.Py_complex]], ptr @cosh_special_values, i64 0, i64 %.0.i, i64 %.0.i32
  %.sroa.025.0.copyload = load double, ptr %43, align 16, !tbaa !7
  %.sroa.7.0..sroa_idx = getelementptr inbounds nuw i8, ptr %43, i64 8
  %.sroa.7.0.copyload = load double, ptr %.sroa.7.0..sroa_idx, align 8, !tbaa !7
  br label %44

44:                                               ; preds = %15, %17, %special_type.exit35
  %.sroa.025.0 = phi double [ %13, %15 ], [ %13, %17 ], [ %.sroa.025.0.copyload, %special_type.exit35 ]
  %.sroa.7.0 = phi double [ %16, %15 ], [ %19, %17 ], [ %.sroa.7.0.copyload, %special_type.exit35 ]
  %45 = fcmp une double %5, 0x7FF0000000000000
  %46 = fcmp uno double %0, 0.000000e+00
  %or.cond28 = select i1 %45, i1 true, i1 %46
  %47 = tail call ptr @__errno_location() #12
  br i1 %or.cond28, label %49, label %48

48:                                               ; preds = %44
  store i32 33, ptr %47, align 4, !tbaa !3
  br label %78

49:                                               ; preds = %44
  store i32 0, ptr %47, align 4, !tbaa !3
  br label %78

50:                                               ; preds = %2
  %51 = fcmp ogt double %3, 0x4086232BDD7ABCD2
  br i1 %51, label %52, label %63

52:                                               ; preds = %50
  %53 = tail call double @llvm.copysign.f64(double 1.000000e+00, double %0)
  %54 = fsub double %0, %53
  %55 = tail call double @cos(double noundef %1) #11, !tbaa !3
  %56 = tail call double @cosh(double noundef %54) #11, !tbaa !3
  %57 = fmul double %55, %56
  %58 = fmul double %57, 0x4005BF0A8B145769
  %59 = tail call double @sin(double noundef %1) #11, !tbaa !3
  %60 = tail call double @sinh(double noundef %54) #11, !tbaa !3
  %61 = fmul double %59, %60
  %62 = fmul double %61, 0x4005BF0A8B145769
  br label %70

63:                                               ; preds = %50
  %64 = tail call double @cos(double noundef %1) #11, !tbaa !3
  %65 = tail call double @cosh(double noundef %0) #11, !tbaa !3
  %66 = fmul double %64, %65
  %67 = tail call double @sin(double noundef %1) #11, !tbaa !3
  %68 = tail call double @sinh(double noundef %0) #11, !tbaa !3
  %69 = fmul double %67, %68
  br label %70

70:                                               ; preds = %63, %52
  %.sroa.025.2 = phi double [ %58, %52 ], [ %66, %63 ]
  %.sroa.7.2 = phi double [ %62, %52 ], [ %69, %63 ]
  %71 = tail call double @llvm.fabs.f64(double %.sroa.025.2) #13
  %72 = fcmp oeq double %71, 0x7FF0000000000000
  %73 = tail call double @llvm.fabs.f64(double %.sroa.7.2) #13
  %74 = fcmp oeq double %73, 0x7FF0000000000000
  %or.cond30 = select i1 %72, i1 true, i1 %74
  %75 = tail call ptr @__errno_location() #12
  br i1 %or.cond30, label %76, label %77

76:                                               ; preds = %70
  store i32 34, ptr %75, align 4, !tbaa !3
  br label %78

77:                                               ; preds = %70
  store i32 0, ptr %75, align 4, !tbaa !3
  br label %78

78:                                               ; preds = %76, %77, %48, %49
  %.sroa.025.1 = phi double [ %.sroa.025.0, %49 ], [ %.sroa.025.0, %48 ], [ %.sroa.025.2, %77 ], [ %.sroa.025.2, %76 ]
  %.sroa.7.1 = phi double [ %.sroa.7.0, %49 ], [ %.sroa.7.0, %48 ], [ %.sroa.7.2, %77 ], [ %.sroa.7.2, %76 ]
  %.fca.0.insert = insertvalue { double, double } poison, double %.sroa.025.1, 0
  %.fca.1.insert = insertvalue { double, double } %.fca.0.insert, double %.sroa.7.1, 1
  ret { double, double } %.fca.1.insert
}